target datalayout = "e-m:e-p270:32:32-p271:32:32-p272:64:64-i64:64-i128:128-f80:128-n8:16:32:64-S128"
target triple = "x86_64-pc-linux-gnu"

; Function Attrs: nounwind uwtable
define internal i32 @matchesTo3RoundedPlaces(float noundef %0, float noundef %1) #0 {
  %3 = alloca float, align 4
  %4 = alloca float, align 4
  store float %0, ptr %3, align 4
  store float %1, ptr %4, align 4
  %5 = load float, ptr %3, align 4
  %6 = load float, ptr %4, align 4
  %7 = fsub float %5, %6
  %8 = call float @llvm.fabs.f32(float %7)
  %9 = fcmp olt float %8, 0x3F50624DE0000000
  %10 = zext i1 %9 to i32
  ret i32 %10
}

; Function Attrs: nounwind uwtable
define hidden zeroext i16 @avifTransferCharacteristicsFindByGamma(float noundef %0) #0 {
  %2 = alloca i16, align 2
  %3 = alloca float, align 4
  store float %0, ptr %3, align 4
  %4 = load float, ptr %3, align 4
  %5 = call i32 @matchesTo3RoundedPlaces(float noundef %4, float noundef 0x40019999A0000000)
  %6 = icmp ne i32 %5, 0
  br i1 %6, label %7, label %8

7:                                                ; preds = %1
  store i16 4, ptr %2, align 2
  br label %21

8:                                                ; preds = %1
  %9 = load float, ptr %3, align 4
  %10 = call i32 @matchesTo3RoundedPlaces(float noundef %9, float noundef 1.000000e+00)
  %11 = icmp ne i32 %10, 0
  br i1 %11, label %12, label %13

12:                                               ; preds = %8
  store i16 8, ptr %2, align 2
  br label %21

13:                                               ; preds = %8
  %14 = load float, ptr %3, align 4
  %15 = call i32 @matchesTo3RoundedPlaces(float noundef %14, float noundef 0x4006666660000000)
  %16 = icmp ne i32 %15, 0
  br i1 %16, label %17, label %18

17:                                               ; preds = %13
  store i16 5, ptr %2, align 2
  br label %21

18:                                               ; preds = %13
  br label %19

19:                                               ; preds = %18
  br label %20

20:                                               ; preds = %19
  store i16 0, ptr %2, align 2
  br label %21

21:                                               ; preds = %20, %17, %12, %7
  %22 = load i16, ptr %2, align 2
  ret i16 %22
}