; Function Attrs: mustprogress nofree norecurse nosync nounwind willreturn memory(none) uwtable
define hidden zeroext range(i16 0, 9) i16 @avifTransferCharacteristicsFindByGamma(float noundef %0) local_unnamed_addr #3 {
  %2 = fadd float %0, 0xC0019999A0000000
  %3 = tail call float @llvm.fabs.f32(float %2)
  %4 = fcmp uge float %3, 0x3F50624DE0000000
  br i1 %4, label %5, label %13

5:                                                ; preds = %1
  %6 = fadd float %0, -1.000000e+00
  %7 = tail call float @llvm.fabs.f32(float %6)
  %8 = fcmp uge float %7, 0x3F50624DE0000000
  br i1 %8, label %9, label %13

9:                                                ; preds = %5
  %10 = fadd float %0, 0xC006666660000000
  %11 = tail call float @llvm.fabs.f32(float %10)
  %12 = fcmp uge float %11, 0x3F50624DE0000000
  %. = select i1 %12, i16 0, i16 5
  br label %13

13:                                               ; preds = %9, %5, %1
  %.0 = phi i16 [ 4, %1 ], [ 8, %5 ], [ %., %9 ]
  ret i16 %.0
}